; Function Attrs: nounwind uwtable
define hidden i64 @SDL_ReadIO_REAL(ptr noundef %0, ptr noundef %1, i64 noundef %2) local_unnamed_addr #0 {
  %.not = icmp eq ptr %0, null
  br i1 %.not, label %4, label %6

4:                                                ; preds = %3
  %5 = tail call zeroext i1 (ptr, ...) @SDL_SetError_REAL(ptr noundef nonnull @.str.2, ptr noundef nonnull @.str.11) #18
  br label %29

6:                                                ; preds = %3
  %7 = getelementptr inbounds nuw i8, ptr %0, i64 24
  %8 = load ptr, ptr %7, align 8
  %.not17 = icmp eq ptr %8, null
  %9 = getelementptr inbounds nuw i8, ptr %0, i64 64
  br i1 %.not17, label %10, label %12

10:                                               ; preds = %6
  store i32 5, ptr %9, align 8
  %11 = tail call zeroext i1 (ptr, ...) @SDL_SetError_REAL(ptr noundef nonnull @.str.18) #18
  br label %29

12:                                               ; preds = %6
  store i32 0, ptr %9, align 8
  %13 = tail call zeroext i1 @SDL_ClearError_REAL() #18
  %14 = icmp eq i64 %2, 0
  br i1 %14, label %29, label %15

15:                                               ; preds = %12
  %16 = load ptr, ptr %7, align 8
  %17 = getelementptr inbounds nuw i8, ptr %0, i64 56
  %18 = load ptr, ptr %17, align 8
  %19 = tail call i64 %16(ptr noundef %18, ptr noundef %1, i64 noundef %2, ptr noundef nonnull %9) #18
  %20 = icmp eq i64 %19, 0
  br i1 %20, label %21, label %29

21:                                               ; preds = %15
  %22 = load i32, ptr %9, align 8
  %23 = icmp eq i32 %22, 0
  br i1 %23, label %24, label %29

24:                                               ; preds = %21
  %25 = tail call ptr @SDL_GetError_REAL() #18
  %26 = load i8, ptr %25, align 1
  %.not18 = icmp eq i8 %26, 0
  br i1 %.not18, label %28, label %27

27:                                               ; preds = %24
  store i32 1, ptr %9, align 8
  br label %29

28:                                               ; preds = %24
  store i32 2, ptr %9, align 8
  br label %29

29:                                               ; preds = %15, %21, %28, %27, %12, %10, %4
  %.0 = phi i64 [ 0, %10 ], [ 0, %4 ], [ 0, %12 ], [ 0, %27 ], [ 0, %28 ], [ 0, %21 ], [ %19, %15 ]
  ret i64 %.0
}